; ModuleID = '36/88.c'
source_filename = "36/88.c"
target datalayout = "e-m:e-p270:32:32-p271:32:32-p272:64:64-i64:64-f80:128-n8:16:32:64-S128"
target triple = "x86_64-pc-linux-gnu"

@.str = private unnamed_addr constant [3 x i8] c"%s\00", align 1
@.str.1 = private unnamed_addr constant [4 x i8] c"YES\00", align 1
@.str.2 = private unnamed_addr constant [3 x i8] c"NO\00", align 1

; Function Attrs: noinline nounwind uwtable
define dso_local i32 @main() #0 {
  %1 = alloca i32, align 4
  %2 = alloca [100 x i8], align 16
  %3 = alloca [100 x i8], align 16
  %4 = alloca i8, align 1
  %5 = alloca i8, align 1
  %6 = alloca i8*, align 8
  %7 = alloca i8*, align 8
  %8 = alloca i32, align 4
  %9 = alloca i32, align 4
  %10 = alloca i32, align 4
  %11 = alloca i32, align 4
  store i32 0, i32* %1, align 4
  %12 = call i32 (i8*, ...) @__isoc99_scanf(i8* getelementptr inbounds ([3 x i8], [3 x i8]* @.str, i64 0, i64 0), [100 x i8]* %2)
  %13 = call i32 (i8*, ...) @__isoc99_scanf(i8* getelementptr inbounds ([3 x i8], [3 x i8]* @.str, i64 0, i64 0), [100 x i8]* %3)
  %14 = getelementptr inbounds [100 x i8], [100 x i8]* %2, i64 0, i64 0
  %15 = call i64 @strlen(i8* %14) #3
  %16 = trunc i64 %15 to i32
  store i32 %16, i32* %8, align 4
  %17 = getelementptr inbounds [100 x i8], [100 x i8]* %3, i64 0, i64 0
  %18 = call i64 @strlen(i8* %17) #3
  %19 = trunc i64 %18 to i32
  store i32 %19, i32* %9, align 4
  %20 = getelementptr inbounds [100 x i8], [100 x i8]* %2, i64 0, i64 0
  store i8* %20, i8** %6, align 8
  %21 = getelementptr inbounds [100 x i8], [100 x i8]* %3, i64 0, i64 0
  store i8* %21, i8** %7, align 8
  store i32 0, i32* %11, align 4
  br label %22

22:                                               ; preds = %76, %0
  %23 = load i32, i32* %11, align 4
  %24 = load i32, i32* %8, align 4
  %25 = icmp slt i32 %23, %24
  br i1 %25, label %26, label %79

26:                                               ; preds = %22
  store i32 0, i32* %10, align 4
  br label %27

27:                                               ; preds = %72, %26
  %28 = load i32, i32* %10, align 4
  %29 = load i32, i32* %8, align 4
  %30 = add nsw i32 %29, 1
  %31 = load i32, i32* %11, align 4
  %32 = sub nsw i32 %30, %31
  %33 = icmp slt i32 %28, %32
  br i1 %33, label %34, label %75

34:                                               ; preds = %27
  %35 = load i8*, i8** %6, align 8
  %36 = load i32, i32* %10, align 4
  %37 = sext i32 %36 to i64
  %38 = getelementptr inbounds i8, i8* %35, i64 %37
  %39 = load i8, i8* %38, align 1
  %40 = sext i8 %39 to i32
  %41 = load i8*, i8** %6, align 8
  %42 = load i32, i32* %10, align 4
  %43 = sext i32 %42 to i64
  %44 = getelementptr inbounds i8, i8* %41, i64 %43
  %45 = getelementptr inbounds i8, i8* %44, i64 1
  %46 = load i8, i8* %45, align 1
  %47 = sext i8 %46 to i32
  %48 = icmp slt i32 %40, %47
  br i1 %48, label %49, label %71

49:                                               ; preds = %34
  %50 = load i8*, i8** %6, align 8
  %51 = load i32, i32* %10, align 4
  %52 = sext i32 %51 to i64
  %53 = getelementptr inbounds i8, i8* %50, i64 %52
  %54 = load i8, i8* %53, align 1
  store i8 %54, i8* %4, align 1
  %55 = load i8*, i8** %6, align 8
  %56 = load i32, i32* %10, align 4
  %57 = sext i32 %56 to i64
  %58 = getelementptr inbounds i8, i8* %55, i64 %57
  %59 = getelementptr inbounds i8, i8* %58, i64 1
  %60 = load i8, i8* %59, align 1
  %61 = load i8*, i8** %6, align 8
  %62 = load i32, i32* %10, align 4
  %63 = sext i32 %62 to i64
  %64 = getelementptr inbounds i8, i8* %61, i64 %63
  store i8 %60, i8* %64, align 1
  %65 = load i8, i8* %4, align 1
  %66 = load i8*, i8** %6, align 8
  %67 = load i32, i32* %10, align 4
  %68 = sext i32 %67 to i64
  %69 = getelementptr inbounds i8, i8* %66, i64 %68
  %70 = getelementptr inbounds i8, i8* %69, i64 1
  store i8 %65, i8* %70, align 1
  br label %71

71:                                               ; preds = %49, %34
  br label %72

72:                                               ; preds = %71
  %73 = load i32, i32* %10, align 4
  %74 = add nsw i32 %73, 1
  store i32 %74, i32* %10, align 4
  br label %27

75:                                               ; preds = %27
  br label %76

76:                                               ; preds = %75
  %77 = load i32, i32* %11, align 4
  %78 = add nsw i32 %77, 1
  store i32 %78, i32* %11, align 4
  br label %22

79:                                               ; preds = %22
  store i32 0, i32* %11, align 4
  br label %80

80:                                               ; preds = %134, %79
  %81 = load i32, i32* %11, align 4
  %82 = load i32, i32* %9, align 4
  %83 = icmp slt i32 %81, %82
  br i1 %83, label %84, label %137

84:                                               ; preds = %80
  store i32 0, i32* %10, align 4
  br label %85

85:                                               ; preds = %130, %84
  %86 = load i32, i32* %10, align 4
  %87 = load i32, i32* %9, align 4
  %88 = add nsw i32 %87, 1
  %89 = load i32, i32* %11, align 4
  %90 = sub nsw i32 %88, %89
  %91 = icmp slt i32 %86, %90
  br i1 %91, label %92, label %133

92:                                               ; preds = %85
  %93 = load i8*, i8** %7, align 8
  %94 = load i32, i32* %10, align 4
  %95 = sext i32 %94 to i64
  %96 = getelementptr inbounds i8, i8* %93, i64 %95
  %97 = load i8, i8* %96, align 1
  %98 = sext i8 %97 to i32
  %99 = load i8*, i8** %7, align 8
  %100 = load i32, i32* %10, align 4
  %101 = sext i32 %100 to i64
  %102 = getelementptr inbounds i8, i8* %99, i64 %101
  %103 = getelementptr inbounds i8, i8* %102, i64 1
  %104 = load i8, i8* %103, align 1
  %105 = sext i8 %104 to i32
  %106 = icmp slt i32 %98, %105
  br i1 %106, label %107, label %129

107:                                              ; preds = %92
  %108 = load i8*, i8** %7, align 8
  %109 = load i32, i32* %10, align 4
  %110 = sext i32 %109 to i64
  %111 = getelementptr inbounds i8, i8* %108, i64 %110
  %112 = load i8, i8* %111, align 1
  store i8 %112, i8* %5, align 1
  %113 = load i8*, i8** %7, align 8
  %114 = load i32, i32* %10, align 4
  %115 = sext i32 %114 to i64
  %116 = getelementptr inbounds i8, i8* %113, i64 %115
  %117 = getelementptr inbounds i8, i8* %116, i64 1
  %118 = load i8, i8* %117, align 1
  %119 = load i8*, i8** %7, align 8
  %120 = load i32, i32* %10, align 4
  %121 = sext i32 %120 to i64
  %122 = getelementptr inbounds i8, i8* %119, i64 %121
  store i8 %118, i8* %122, align 1
  %123 = load i8, i8* %5, align 1
  %124 = load i8*, i8** %7, align 8
  %125 = load i32, i32* %10, align 4
  %126 = sext i32 %125 to i64
  %127 = getelementptr inbounds i8, i8* %124, i64 %126
  %128 = getelementptr inbounds i8, i8* %127, i64 1
  store i8 %123, i8* %128, align 1
  br label %129

129:                                              ; preds = %107, %92
  br label %130

130:                                              ; preds = %129
  %131 = load i32, i32* %10, align 4
  %132 = add nsw i32 %131, 1
  store i32 %132, i32* %10, align 4
  br label %85

133:                                              ; preds = %85
  br label %134

134:                                              ; preds = %133
  %135 = load i32, i32* %11, align 4
  %136 = add nsw i32 %135, 1
  store i32 %136, i32* %11, align 4
  br label %80

137:                                              ; preds = %80
  %138 = getelementptr inbounds [100 x i8], [100 x i8]* %2, i64 0, i64 0
  %139 = getelementptr inbounds [100 x i8], [100 x i8]* %3, i64 0, i64 0
  %140 = call i32 @strcmp(i8* %138, i8* %139) #3
  %141 = icmp eq i32 %140, 0
  br i1 %141, label %142, label %144

142:                                              ; preds = %137
  %143 = call i32 (i8*, ...) @printf(i8* getelementptr inbounds ([4 x i8], [4 x i8]* @.str.1, i64 0, i64 0))
  br label %146

144:                                              ; preds = %137
  %145 = call i32 (i8*, ...) @printf(i8* getelementptr inbounds ([3 x i8], [3 x i8]* @.str.2, i64 0, i64 0))
  br label %146

146:                                              ; preds = %144, %142
  ret i32 0
}

declare dso_local i32 @__isoc99_scanf(i8*, ...) #1

; Function Attrs: nounwind readonly
declare dso_local i64 @strlen(i8*) #2

; Function Attrs: nounwind readonly
declare dso_local i32 @strcmp(i8*, i8*) #2

declare dso_local i32 @printf(i8*, ...) #1


!llvm.module.flags = !{!0}
!llvm.ident = !{!1}

!0 = !{i32 1, !"wchar_size", i32 4}
!1 = !{!"clang version 10.0.0-4ubuntu1 "}
